target datalayout = "e-m:e-p270:32:32-p271:32:32-p272:64:64-i64:64-i128:128-f80:128-n8:16:32:64-S128"
target triple = "x86_64-pc-linux-gnu"

%struct.option = type { i32, i32, ptr, ptr, ptr, ptr, i32, ptr, i64, ptr, i64, ptr }

@.str.36 = private unnamed_addr constant [18 x i8] c"builtin/init-db.c\00", align 1
@.str.37 = private unnamed_addr constant [41 x i8] c"option callback does not expect negation\00", align 1
@.str.38 = private unnamed_addr constant [4 x i8] c"arg\00", align 1

; Function Attrs: nounwind uwtable
define internal i32 @shared_callback(ptr noundef %0, ptr noundef %1, i32 noundef %2) #0 {
  %4 = alloca ptr, align 8
  %5 = alloca ptr, align 8
  %6 = alloca i32, align 4
  store ptr %0, ptr %4, align 8, !tbaa !32
  store ptr %1, ptr %5, align 8, !tbaa !11
  store i32 %2, ptr %6, align 4, !tbaa !4
  br label %7

7:                                                ; preds = %3
  %8 = load i32, ptr %6, align 4, !tbaa !4
  %9 = icmp ne i32 %8, 0
  br i1 %9, label %10, label %11

10:                                               ; preds = %7
  call void (ptr, i32, ptr, ...) @BUG_fl(ptr noundef @.str.36, i32 noundef 53, ptr noundef @.str.37) #11
  unreachable

11:                                               ; preds = %7
  br label %12

12:                                               ; preds = %11
  %13 = load ptr, ptr %5, align 8, !tbaa !11
  %14 = icmp ne ptr %13, null
  br i1 %14, label %15, label %18

15:                                               ; preds = %12
  %16 = load ptr, ptr %5, align 8, !tbaa !11
  %17 = call i32 @git_config_perm(ptr noundef @.str.38, ptr noundef %16)
  br label %19

18:                                               ; preds = %12
  br label %19

19:                                               ; preds = %18, %15
  %20 = phi i32 [ %17, %15 ], [ 432, %18 ]
  %21 = load ptr, ptr %4, align 8, !tbaa !32
  %22 = getelementptr inbounds nuw %struct.option, ptr %21, i32 0, i32 3
  %23 = load ptr, ptr %22, align 8, !tbaa !20
  store i32 %20, ptr %23, align 4, !tbaa !4
  ret i32 0
}