; Function Attrs: nounwind uwtable
define internal noundef i32 @shared_callback(ptr noundef readonly captures(none) %0, ptr noundef %1, i32 noundef %2) #0 {
  %.not = icmp eq i32 %2, 0
  br i1 %.not, label %5, label %4

4:                                                ; preds = %3
  tail call void (ptr, i32, ptr, ...) @BUG_fl(ptr noundef nonnull @.str.36, i32 noundef 53, ptr noundef nonnull @.str.37) #16
  unreachable

5:                                                ; preds = %3
  %.not3 = icmp eq ptr %1, null
  br i1 %.not3, label %8, label %6

6:                                                ; preds = %5
  %7 = tail call i32 @git_config_perm(ptr noundef nonnull @.str.38, ptr noundef nonnull %1) #15
  br label %8

8:                                                ; preds = %5, %6
  %9 = phi i32 [ %7, %6 ], [ 432, %5 ]
  %10 = getelementptr inbounds nuw i8, ptr %0, i64 16
  %11 = load ptr, ptr %10, align 8, !tbaa !16
  store i32 %9, ptr %11, align 4, !tbaa !9
  ret i32 0
}